#include <math.h>
#include <stdio.h>
#include <stdlib.h>
#include <string.h>

int main(){
	int n,i,a[10000];
	scanf("%d",&n);
	if(n==1){
			printf("End\n");
	}
	a[1]=n;
	if(n!=1){
		for(i=1; ;i++){
		if(a[i]%2==0){
			a[i+1]=a[i]/2;
			printf("%d/2=%d\n",a[i],a[i+1]);
			if(a[i+1]==1){
				break;
			}
		}
		if(a[i]%2!=0){
			if(a[i]==1){
				break;
			}
			a[i+1]=a[i]*3+1;
			printf("%d*3+1=%d\n",a[i],a[i+1]);
		}
	}
			printf("End\n");
	}
	return 0;
}

