; ModuleID = 'source-C-CXX/33/552.c'
source_filename = "source-C-CXX/33/552.c"
target datalayout = "e-m:e-p270:32:32-p271:32:32-p272:64:64-i64:64-f80:128-n8:16:32:64-S128"
target triple = "x86_64-pc-linux-gnu"

@.str = private unnamed_addr constant [3 x i8] c"%d\00", align 1
@.str.2 = private unnamed_addr constant [9 x i8] c"%d/2=%d\0A\00", align 1
@.str.3 = private unnamed_addr constant [11 x i8] c"%d*3+1=%d\0A\00", align 1
@str.4 = private unnamed_addr constant [4 x i8] c"End\00", align 1

; Function Attrs: nofree nounwind sspstrong uwtable
define dso_local i32 @main() local_unnamed_addr #0 {
  %1 = alloca i32, align 4
  %2 = alloca [10000 x i32], align 16
  %3 = bitcast i32* %1 to i8*
  call void @llvm.lifetime.start.p0i8(i64 4, i8* nonnull %3) #4
  %4 = bitcast [10000 x i32]* %2 to i8*
  call void @llvm.lifetime.start.p0i8(i64 40000, i8* nonnull %4) #4
  %5 = call i32 (i8*, ...) @__isoc99_scanf(i8* getelementptr inbounds ([3 x i8], [3 x i8]* @.str, i64 0, i64 0), i32* nonnull %1)
  %6 = load i32, i32* %1, align 4, !tbaa !5
  %7 = icmp eq i32 %6, 1
  br i1 %7, label %10, label %8

8:                                                ; preds = %0
  %9 = getelementptr inbounds [10000 x i32], [10000 x i32]* %2, i64 0, i64 1
  store i32 %6, i32* %9, align 4, !tbaa !5
  br label %15

10:                                               ; preds = %0
  %11 = call i32 @puts(i8* nonnull dereferenceable(1) getelementptr inbounds ([4 x i8], [4 x i8]* @str.4, i64 0, i64 0))
  %12 = load i32, i32* %1, align 4, !tbaa !5
  %13 = getelementptr inbounds [10000 x i32], [10000 x i32]* %2, i64 0, i64 1
  store i32 %12, i32* %13, align 4, !tbaa !5
  %14 = icmp eq i32 %12, 1
  br i1 %14, label %46, label %15

15:                                               ; preds = %8, %10
  %16 = phi i32 [ %12, %10 ], [ %6, %8 ]
  br label %17

17:                                               ; preds = %33, %15
  %18 = phi i32 [ %16, %15 ], [ %34, %33 ]
  %19 = phi i64 [ 1, %15 ], [ %35, %33 ]
  %20 = and i32 %18, 1
  %21 = icmp eq i32 %20, 0
  br i1 %21, label %22, label %36

22:                                               ; preds = %17
  %23 = sdiv i32 %18, 2
  %24 = add nuw nsw i64 %19, 1
  %25 = getelementptr inbounds [10000 x i32], [10000 x i32]* %2, i64 0, i64 %24
  store i32 %23, i32* %25, align 4, !tbaa !5
  %26 = call i32 (i8*, ...) @printf(i8* nonnull dereferenceable(1) getelementptr inbounds ([9 x i8], [9 x i8]* @.str.2, i64 0, i64 0), i32 %18, i32 %23)
  %27 = and i32 %18, -2
  %28 = icmp eq i32 %27, 2
  br i1 %28, label %44, label %29

29:                                               ; preds = %22
  %30 = add nuw i64 %19, 1
  %31 = getelementptr inbounds [10000 x i32], [10000 x i32]* %2, i64 0, i64 %30
  %32 = load i32, i32* %31, align 4, !tbaa !5
  br label %33

33:                                               ; preds = %29, %38
  %34 = phi i32 [ %32, %29 ], [ %40, %38 ]
  %35 = phi i64 [ %30, %29 ], [ %41, %38 ]
  br label %17

36:                                               ; preds = %17
  %37 = icmp eq i32 %18, 1
  br i1 %37, label %44, label %38

38:                                               ; preds = %36
  %39 = mul nsw i32 %18, 3
  %40 = add nsw i32 %39, 1
  %41 = add nuw i64 %19, 1
  %42 = getelementptr inbounds [10000 x i32], [10000 x i32]* %2, i64 0, i64 %41
  store i32 %40, i32* %42, align 4, !tbaa !5
  %43 = call i32 (i8*, ...) @printf(i8* nonnull dereferenceable(1) getelementptr inbounds ([11 x i8], [11 x i8]* @.str.3, i64 0, i64 0), i32 %18, i32 %40)
  br label %33

44:                                               ; preds = %36, %22
  %45 = call i32 @puts(i8* nonnull dereferenceable(1) getelementptr inbounds ([4 x i8], [4 x i8]* @str.4, i64 0, i64 0))
  br label %46

46:                                               ; preds = %44, %10
  call void @llvm.lifetime.end.p0i8(i64 40000, i8* nonnull %4) #4
  call void @llvm.lifetime.end.p0i8(i64 4, i8* nonnull %3) #4
  ret i32 0
}

; Function Attrs: argmemonly mustprogress nofree nosync nounwind willreturn
declare void @llvm.lifetime.start.p0i8(i64 immarg, i8* nocapture) #1

; Function Attrs: nofree nounwind
declare noundef i32 @__isoc99_scanf(i8* nocapture noundef readonly, ...) local_unnamed_addr #2

; Function Attrs: nofree nounwind
declare noundef i32 @printf(i8* nocapture noundef readonly, ...) local_unnamed_addr #2

; Function Attrs: argmemonly mustprogress nofree nosync nounwind willreturn
declare void @llvm.lifetime.end.p0i8(i64 immarg, i8* nocapture) #1

; Function Attrs: nofree nounwind
declare noundef i32 @puts(i8* nocapture noundef readonly) local_unnamed_addr #3


!llvm.module.flags = !{!0, !1, !2, !3}
!llvm.ident = !{!4}

!0 = !{i32 1, !"wchar_size", i32 4}
!1 = !{i32 7, !"PIC Level", i32 2}
!2 = !{i32 7, !"PIE Level", i32 2}
!3 = !{i32 7, !"uwtable", i32 1}
!4 = !{!"clang version 13.0.0"}
!5 = !{!6, !6, i64 0}
!6 = !{!"int", !7, i64 0}
!7 = !{!"omnipotent char", !8, i64 0}
!8 = !{!"Simple C/C++ TBAA"}
